(dp0
I1
S'20'
p1
sI2
S'4'
p2
sI3
S'25'
p3
sI4
S'43'
p4
sI5
S'30'
p5
sI6
S'94'
p6
sI7
S'42'
p7
sI8
S'1'
p8
sI9
S'71'
p9
sI10
S'36'
p10
sI11
S'84'
p11
sI12
S'98'
p12
sI13
S'14'
p13
sI14
S'62'
p14
sI15
S'38'
p15
sI16
S'49'
p16
sI17
S'7'
p17
sI18
S'11'
p18
sI19
S'68'
p19
sI20
S'97'
p20
sI21
S'12'
p21
sI22
S'86'
p22
sI23
S'5'
p23
sI24
S'65'
p24
sI25
S'33'
p25
sI26
S'95'
p26
sI27
S'76'
p27
sI28
S'34'
p28
sI29
S'31'
p29
sI30
S'39'
p30
sI31
S'23'
p31
sI32
S'69'
p32
sI33
S'81'
p33
sI34
S'87'
p34
sI35
S'40'
p35
sI36
S'55'
p36
sI37
S'47'
p37
sI38
S'17'
p38
sI39
S'54'
p39
sI40
S'10'
p40
sI41
S'3'
p41
sI42
S'77'
p42
sI43
S'90'
p43
sI44
S'82'
p44
sI45
S'27'
p45
sI46
S'9'
p46
sI47
S'0'
p47
sI48
S'2'
p48
sI49
S'58'
p49
sI50
S'51'
p50
sI51
S'78'
p51
sI52
S'57'
p52
sI53
S'88'
p53
sI54
S'61'
p54
sI55
S'35'
p55
sI56
S'52'
p56
sI57
S'29'
p57
sI58
S'48'
p58
sI59
S'22'
p59
sI60
S'99'
p60
sI61
S'60'
p61
sI62
S'59'
p62
sI63
S'70'
p63
sI64
S'28'
p64
sI65
S'46'
p65
sI66
S'21'
p66
sI67
S'6'
p67
sI68
S'53'
p68
sI69
S'67'
p69
sI70
S'85'
p70
sI71
S'24'
p71
sI72
S'89'
p72
sI73
S'73'
p73
sI74
S'13'
p74
sI75
S'18'
p75
sI76
S'100'
p76
sI77
S'75'
p77
sI78
S'44'
p78
sI79
S'16'
p79
sI80
S'26'
p80
sI81
S'45'
p81
sI82
S'8'
p82
sI83
S'96'
p83
sI84
S'72'
p84
sI85
S'80'
p85
sI86
S'50'
p86
sI87
S'83'
p87
sI88
S'63'
p88
sI89
S'32'
p89
sI90
S'64'
p90
sI91
S'93'
p91
sI92
S'74'
p92
sI93
S'66'
p93
sI94
S'79'
p94
sI95
S'15'
p95
sI96
S'91'
p96
sI97
S'92'
p97
sI98
S'19'
p98
sI99
S'41'
p99
sI100
S'56'
p100
sI101
S'37'
p101
s.