(lp0
S'http://research.baidu.com/Public/uploads/5b0d1b4fbdea5.pdf'
p1
aS'http://research.baidu.com/Public/uploads/5b0cfa1f8a77e.pdf'
p2
aS'http://research.baidu.com/Public/uploads/5acc1e230d179.pdf'
p3
aS'http://research.baidu.com/Public/uploads/5b7932f469658.pdf'
p4
aS'http://research.baidu.com/Public/uploads/5b8c971b1778a.pdf'
p5
aS'http://research.baidu.com/Public/uploads/5b0e46416fd41.pdf'
p6
aS'http://research.baidu.com/Public/uploads/5abde14c96e83.pdf'
p7
aS'http://research.baidu.com/Public/uploads/5ac9b5b04dce3.pdf'
p8
aS'http://research.baidu.com/Public/uploads/5b23a5bcf15c6.pdf'
p9
aS'http://research.baidu.com/Public/uploads/5b23a7680d8b3.pdf'
p10
aS'http://research.baidu.com/Public/uploads/5acc1edfb3661.pdf'
p11
aS'http://research.baidu.com/Public/uploads/5abdde96f0ca3.pdf'
p12
aS'http://research.baidu.com/Public/uploads/5abda2ec4deb3.pdf'
p13
aS'http://research.baidu.com/Public/uploads/5afe370a6a6ef.pdf'
p14
aS'http://research.baidu.com/Public/uploads/5abdb5763da19.pdf'
p15
aS'http://research.baidu.com/Public/uploads/5abde2601c8f5.pdf'
p16
aS'http://research.baidu.com/Public/uploads/5acc1f4d2bfc5.pdf'
p17
aS'http://research.baidu.com/Public/uploads/5b8c96c88c2ab.pdf'
p18
aS'http://research.baidu.com/Public/uploads/5acc1f9026183.pdf'
p19
aS'http://research.baidu.com/Public/uploads/5abddf8941a0a.pdf'
p20
aS'http://research.baidu.com/Public/uploads/5abdab4fc6cf0.pdf'
p21
aS'http://research.baidu.com/Public/uploads/5b286b76b6b86.pdf'
p22
aS'http://research.baidu.com/Public/uploads/5b8c9be23bc3d.pdf'
p23
aS'http://research.baidu.com/Public/uploads/5aea64f01c9e0.pdf'
p24
aS'http://research.baidu.com/Public/uploads/5abde13a5e96d.pdf'
p25
aS'http://research.baidu.com/Public/uploads/5acc202543b94.pdf'
p26
aS'http://research.baidu.com/Public/uploads/5ac03b06818f9.pdf'
p27
aS'http://research.baidu.com/Public/uploads/5b333fd288d7f.pdf'
p28
aS'http://research.baidu.com/Public/uploads/5ac03e3444ac0.pdf'
p29
aS'http://research.baidu.com/Public/uploads/5acc20706a719.pdf'
p30
aS'http://research.baidu.com/Public/uploads/5ac03cbea2d48.pdf'
p31
aS'http://research.baidu.com/Public/uploads/5ac03da1e126a.pdf'
p32
aS'http://research.baidu.com/Public/uploads/5ac036bf9739a.pdf'
p33
aS'http://research.baidu.com/Public/uploads/5acc20df64b52.pdf'
p34
aS'http://research.baidu.com/Public/uploads/5ac038a607613.pdf'
p35
aS'http://research.baidu.com/Public/uploads/5acc2136f09d7.pdf'
p36
aS'http://research.baidu.com/Public/uploads/5ac03c40a36af.pdf'
p37
aS'http://research.baidu.com/Public/uploads/5ac039c6db86d.pdf'
p38
aS'http://research.baidu.com/Public/uploads/5ac03f0ebc39f.pdf'
p39
aS'http://research.baidu.com/Public/uploads/5acc229c28311.pdf'
p40
aS'http://research.baidu.com/Public/uploads/5acc25430f6de.pdf'
p41
aS'http://research.baidu.com/Public/uploads/5af93327013d9.pdf'
p42
aS'http://research.baidu.com/Public/uploads/5acc26e57d28a.pdf'
p43
aS'http://research.baidu.com/Public/uploads/5b32f31e31086.pdf'
p44
aS'http://research.baidu.com/Public/uploads/5acc27655b41e.pdf'
p45
aS'http://research.baidu.com/Public/uploads/5acc28c41f68a.pdf'
p46
aS'http://research.baidu.com/Public/uploads/5ac035871083b.pdf'
p47
aS'http://research.baidu.com/Public/uploads/5acc294ce9148.pdf'
p48
aS'http://research.baidu.com/Public/uploads/5acc29a7d43fb.pdf'
p49
aS'http://research.baidu.com/Public/uploads/5acc2a10cc977.pdf'
p50
aS'http://research.baidu.com/Public/uploads/5acc2a6723f1d.pdf'
p51
aS'http://research.baidu.com/Public/uploads/5ac04eeb28dfd.pdf'
p52
aS'http://research.baidu.com/Public/uploads/5acc2ae7cbfab.pdf'
p53
aS'http://research.baidu.com/Public/uploads/5ac03fe7f3f35.pdf'
p54
aS'http://research.baidu.com/Public/uploads/5acc2b46efb45.pdf'
p55
aS'http://research.baidu.com/Public/uploads/5ac0416a32f9d.pdf'
p56
aS'http://research.baidu.com/Public/uploads/5ac040dad889e.pdf'
p57
aS'http://research.baidu.com/Public/uploads/5ac0440c45a29.pdf'
p58
aS'http://research.baidu.com/Public/uploads/5acc2bb7a7cf8.pdf'
p59
aS'http://research.baidu.com/Public/uploads/5acc2cbf73d0c.pdf'
p60
aS'http://research.baidu.com/Public/uploads/5acc2d21b33e5.pdf'
p61
aS'http://research.baidu.com/Public/uploads/5ac0504e3ed84.pdf'
p62
aS'http://research.baidu.com/Public/uploads/5acc2d75af589.pdf'
p63
aS'http://research.baidu.com/Public/uploads/5ac044c2b1e68.pdf'
p64
aS'http://research.baidu.com/Public/uploads/5acc2e82158d4.pdf'
p65
aS'http://research.baidu.com/Public/uploads/5acc2ed4434c9.pdf'
p66
aS'http://research.baidu.com/Public/uploads/5acc2f2758b24.pdf'
p67
aS'http://research.baidu.com/Public/uploads/5ac0421700e30.pdf'
p68
aS'http://research.baidu.com/Public/uploads/5ac052656be8f.pdf'
p69
aS'http://research.baidu.com/Public/uploads/5ac050ea87009.pdf'
p70
aS'http://research.baidu.com/Public/uploads/5acc2faca54aa.pdf'
p71
aS'http://research.baidu.com/Public/uploads/5acc2ffa148cd.pdf'
p72
aS'http://research.baidu.com/Public/uploads/5acc304334523.pdf'
p73
aS'http://research.baidu.com/Public/uploads/5ac0534b2e6d5.pdf'
p74
aS'http://research.baidu.com/Public/uploads/5acc308d8c5e3.pdf'
p75
aS'http://research.baidu.com/Public/uploads/5acc30e83de0c.pdf'
p76
aS'http://research.baidu.com/Public/uploads/5acc3159a8325.pdf'
p77
aS'http://research.baidu.com/Public/uploads/5ac0852a83fa4.pdf'
p78
aS'http://research.baidu.com/Public/uploads/5ac054ad6a676.pdf'
p79
aS'http://research.baidu.com/Public/uploads/5acc31aeaf4d3.pdf'
p80
aS'http://research.baidu.com/Public/uploads/5acc31eaedf3d.pdf'
p81
aS'http://research.baidu.com/Public/uploads/5acc322477d37.pdf'
p82
aS'http://research.baidu.com/Public/uploads/5acc33d2debef.pdf'
p83
aS'http://research.baidu.com/Public/uploads/5acc344023d15.pdf'
p84
aS'http://research.baidu.com/Public/uploads/5acc34c4ddec6.pdf'
p85
aS'http://research.baidu.com/Public/uploads/5acc3503e2a0b.pdf'
p86
aS'http://research.baidu.com/Public/uploads/5acc4fc0d122d.pdf'
p87
aS'http://research.baidu.com/Public/uploads/5acc50791fff6.pdf'
p88
aS'http://research.baidu.com/Public/uploads/5acc50b892a03.pdf'
p89
aS'http://research.baidu.com/Public/uploads/5acc50feadf9f.pdf'
p90
aS'http://research.baidu.com/Public/uploads/5acc5145eef4e.pdf'
p91
aS'http://research.baidu.com/Public/uploads/5acc51eea131b.pdf'
p92
aS'http://research.baidu.com/Public/uploads/5acc5234e2e75.pdf'
p93
aS'http://research.baidu.com/Public/uploads/5acc527481531.pdf'
p94
aS'http://research.baidu.com/Public/uploads/5acc52cb0bd1a.pdf'
p95
aS'http://research.baidu.com/Public/uploads/5acc5415399fa.pdf'
p96
aS'http://research.baidu.com/Public/uploads/5acc54895953b.pdf'
p97
aS'http://research.baidu.com/Public/uploads/5acc55ed90cb6.pdf'
p98
aS'http://research.baidu.com/Public/uploads/5acc568f8e0b1.pdf'
p99
aS'http://research.baidu.com/Public/uploads/5acc57bbb17e7.pdf'
p100
aS'http://research.baidu.com/Public/uploads/5acc588f1559f.pdf'
p101
a.