(lp0
(lp1
Vbaiduresearch
p2
aVsunnyval
p3
aVca
p4
aVwangyang
p5
aVyangyi
p6
aVzhaoliang
p7
aVwei
p8
aVxu
p9
aVbaidu
p10
aVcomzhenheni
p11
aVusc
p12
aVedu
p13
aVabstract
p14
aVvisedlearn
p15
aVhowev
p16
aVinthisworkw
p17
aVmotion
p18
aVchair
p19
aVmpi
p20
aVesp
p21
aVexist
p22
aa(lp23
Vintroduct
p24
aVornamelyopticalw
p25
aVisafun
p26
aVwiththeaccur
p27
aVopticalwpredict
p28
aVonecouldestimateth
p29
aVdstructur
p30
aVofascen
p31
aVcue
p32
aVandvideoobject
p33
aVdetect
p34
aa(lp35
Vtradition
p36
aa(lp37
Vnetwork
p38
aVcnn
p39
aVwhereth
p40
aVordirectlyoutputth
p41
aVdensewinanend
p42
aVendmann
p43
aVonemajor
p44
aVclassicalenergi
p45
aVwheremostst
p46
aVartenergi
p47
aVbasedmethodsrequir
p48
aVwhiledeepnet
p49
aVonlyneedaround
p50
aa(lp51
Ving
p52
aVunfortun
p53
aVmostlarg
p54
aVandground
p55
aVerallyhardtoannot
p56
aVun
p57
aVtheoverallstrategyb
p58
aVtruthw
p59
aVtheyusea
p60
aVtargetimageandth
p61
aVinvers
p62
aVvolutionalnetwork
p63
aVend
p64
aVtruth
p65
aVwannot
p66
aa(lp67
Vhowev
p68
aVcounterpart
p69
aVestim
p70
aVlearningmethod
p71
aVinthispap
p72
aVweproposeanewend
p73
aVissu
p74
aa(lp75
Vtargetimag
p76
aVduringreconstruct
p77
aVtherewillbeafract
p78
aVtoocclus
p79
aVitcouldlimit
p80
aVotherpixel
p81
aVforexampl
p82
aVinfig
p83
aVwewouldliketoesti
p84
aVtofram
p85
aVandrecon
p86
aVstructfram
p87
aVbywarpingfram
p88
aVwiththeestimatedw
p89
aa(lp90
Vhttp
p91
aVwww
p92
aVcvlib
p93
aVnet
p94
aVdataset
p95
aVkitti
p96
aVeval_
p97
aVscene_flow
p98
aVphp
p99
aVbenchmark
p100
aVflow
p101
aVarxiv
p102
aVcs
p103
aVcv
p104
aVnov
p105
aVfigur
p106
aVinputfram
p107
aVinputfram
p108
aVground
p109
aVtruthopticalw
p110
aVimagewarpedbyground
p111
aVtruthopticalw
p112
aa(lp113
Vbackwardopticalw
p114
aVestimatedbyourmethod
p115
aVopticalwfrom
p116
aVimagewarpedbi
p117
aa(lp118
Vimag
p119
aVitmovesinthedown
p120
aVleftdirect
p121
aVandsomepart
p122
aVwhenwewarpfram
p123
aVbacktofram
p124
aVusingtheground
p125
aVtruthw
p126
aVfig
p127
aVresultingimag
p128
aVfig
p129
aVhastwochairsinit
p130
aVthechairon
p131
aVthetop
p132
aVrightistherealchair
p133
aVtheground
p134
aVthechair
p135
aVinfram
p136
aViscarriedbacktofram
p137
aVtointheocclud
p138
aVbackground
p139
aVtherefor
p140
aVframe
p141
aVwarpedbytheground
p142
aVtruth
p143
aVfromth
p144
aVotherperspect
p145
aVwhichi
p146
aVillustratedinfig
p147
aVlarappear
p148
aVhasonlyonechairinit
p149
aa(lp150
Vtoaddressthisissu
p151
aVmoreconcret
p152
aVfig
p153
aVanduseitto
p154
aVfig
p155
aa(lp156
Vframe
p157
aa(lp158
Vocclud
p159
aVfig
p160
aVcanhavetwochairsinit
p161
aVfig
p162
aVwithout
p163
aa(lp164
Vmethodsinfouraspect
p165
aVweproposedanewend
p166
aVourworkisso
p167
aVlearningforopticalw
p168
aVwedevelopedanewwarp
p169
aVmotion
p170
aa(lp171
a(lp172
Vasaresult
p173
aVmpi
p174
aVsintel
p175
aVandkitti
p176
aVonkittibenchmark
p177
aa(lp178
Vrelatedwork
p179
aVdecad
p180
aVduetopagelimit
p181
aVwewil
p182
aVlearningapproach
p183
aa(lp184
Vopticalwestim
p185
aa(lp186
Vthepioneeringwork
p187
aVstartingfromthen
p188
aVmpi
p189
aVsintel
p190
aVbenchmarkdataset
p191
aVmostclassicalopti
p192
aVothertrendsin
p193
aVadesignof
p194
aVandmotionblur
p195
aVwhichwewilld
p196
aa(lp197
a(lp198
Vhowev
p199
aVaccuraci
p200
aVsofar
p201
aVartresult
p202
aa(lp203
Vocclus
p204
aa(lp205
Vsinceoc
p206
aVitisin
p207
aVandocclus
p208
aVwedividethem
p209
aVintothreemajorgroup
p210
aa(lp211
Vthelast
p212
aVaboutocclus
p213
aVourmodelissimilarto
p214
aVthesecondgroup
p215
aa(lp216
Vend
p217
aVtrainablefashion
p218
aa(lp219
a(lp220
Vthesuccessofdeep
p221
aVusesdeep
p222
aVformat
p223
aVlater
p224
aVbasedpatchmatch
p225
aVingfeatur
p226
aVaccuracyandfastspe
p227
aa(lp228
Vmeanwhil
p229
aVdemonstratesthatwith
p230
aVfashion
p231
aVlater
p232
aa(lp233
Vcludingmpi
p234
aVsintel
p235
aVandkitti
p236
aVwitharel
p237
aVhowev
p238
aVthesupervisedlearn
p239
aVfigur
p240
aVitcontainstwocopi
p241
aVofflownet
p242
aVthefor
p243
aVbackwardw
p244
aVinalfram
p245
aVoverthenon
p246
aVoccludedarea
p247
aVthereisalsoa
p248
aa(lp249
Vtothelackofground
p250
aVdataset
p251
aa(lp252
a(lp253
Vintro
p254
aVducesanend
p255
aVsuperviseds
p256
aVlater
p257
aVadoptasim
p258
aVmarkdataset
p259
aVtruth
p260
aVwork
p261
aVpropag
p262
aVendmann
p263
aVbutthew
p264
aVinthispap
p265
aVweshowthat
p266
aa(lp267
a(lp268
Voverallstructur
p269
aa(lp270
Vournetworkcontain
p271
aVtheup
p272
aVasinput
p273
aa(lp274
Vfigur
p275
aVdemonstratinghowth
p276
aVocclusionmap
p277
aVisgeneratedus
p278
aVthebackwardopticalw
p279
aVcomponentopticalw
p280
aVdenotesmov
p281
aVingright
p282
aVdenotemovingleftand
p283
aVdenotesstationari
p284
aVtheocclusionmap
p285
aVdenotesoccludedand
p286
aVdenotesnon
p287
aVocclud
p288
aa(lp289
a(lp290
Vtheforwardw
p291
aVisusedtowarp
p292
aVtoreconstruct
p293
aa(lp294
Vwecallthi
p295
aVbackwardwarp
p296
aVthebackwardw
p297
aVforwardwarp
p298
aVing
p299
aVthati
p300
aVregionin
p301
aVthatdo
p302
aa(lp303
Vphotometricterm
p304
aVandasmoothnessterm
p305
aVforth
p306
aVphotometricterm
p307
aVandth
p308
aVoriginaltargetimag
p309
aVinthenon
p310
aVoccludedregion
p311
aVtoob
p312
aVingmethod
p313
aVappliedto
p314
aa(lp315
a(lp316
Vwemodelth
p317
aVnon
p318
aVoccludedregionin
p319
aVastherangeof
p320
aVmax
p321
aVmax
p322
aVisth
p323
aVrangemap
p324
aVvalueatloc
p325
aa(lp326
a(lp327
Vsinc
p328
aViscontinu
p329
aVonanimagegrid
p330
aVfigur
p331
aa(lp332
Vneighbor
p333
aVocclusionmap
p334
aVcanbeobtainedbysim
p335
aVatthevalueof
p336
aVandth
p337
aa(lp338
Vmin
p339
aVendwith
p340
aVtherestofthenetwork
p341
aa(lp342
a(lp343
Vhaveonli
p344
aVpixelseach
p345
aVpixelvalu
p346
aVthemot
p347
aVandcoversit
p348
aVwecreateanimag
p349
aa(lp350
Vtherefor
p351
aVtheoneatthetop
p352
aVtop
p353
aVzero
p354
aVthetop
p355
aVrightcorn
p356
aVisoccludedbypixel
p357
aVwhichi
p358
aa(lp359
a(lp360
Vwithforwardopticalw
p361
aVthemethodadoptedher
p362
aVissimilarto
p363
aVspace
p364
aVestneighbor
p365
aVproposedposit
p366
aVdientsign
p367
aVforexampleinfig
p368
aVinthepositionof
p369
aVcalw
p370
aVneighbor
p371
aVhowev
p372
aVdirect
p373
aVthisprob
p374
aVal
p375
aVthemotionmightnot
p376
aa(lp377
Vmoreconcret
p378
aVtowarp
p379
aVbacktoreconstruct
p380
aVatagridpoint
p381
aVtheyellow
p382
aVsquar
p383
aVbecausethepoint
p384
aVisnotonthegridpoint
p385
aa(lp386
Vnormal
p387
aVthevalueat
p388
aVnearestneighbor
p389
aVrightsideoffig
p390
aVneighbor
p391
aVaroundthepoint
p392
aVforinst
p393
aVifintheenlarg
p394
aVneighborofpoint
p395
aVweassignth
p396
aVvalueatthepoint
p397
aVpointslabel
p398
aVwithredcrossesinfig
p399
aVwithrespecttopoint
p400
aVdoingthi
p401
aa(lp402
Vlossterm
p403
aa(lp404
Vponent
p405
aVaphotometricloss
p406
aVandasmoothnessloss
p407
aVoverth
p408
aVnon
p409
aVagegradi
p410
aa(lp411
Vtheloss
p412
aVtrivialsolut
p413
aa(lp414
Vforthesmoothnessloss
p415
aVweadoptanedg
p416
aVawareformu
p417
aVlationsimilarto
p418
aVsincetheoccludedarea
p419
aVtheopticalwestima
p420
aVloss
p421
aVbyusinganedg
p422
aVtheopti
p423
aVweuseboth
p424
aVandsecond
p425
aa(lp426
Vfigur
p427
aVofthedecodingstag
p428
aVontheleft
p429
aVweshowtheorigin
p430
aVflownetsstructur
p431
aVontheright
p432
aVweshowour
p433
aVconv
p434
aVandconv
p435
aVarefea
p436
aa(lp437
Vimag
p438
aVandimag
p439
aVtime
p440
aVcordingli
p441
aa(lp442
Vindexesov
p443
aVpartialderivativeon
p444
aVdirect
p445
aVthelossisa
p446
aVflownetworkdetail
p447
aa(lp448
Vourinnerwnetworki
p449
aVadoptedfromflownet
p450
aVsameasflownet
p451
aVweus
p452
aVamulti
p453
aVbydown
p454
aVsimilartoflownet
p455
aVbydoingthi
p456
aVeachlayeronli
p457
aVscale
p458
aa(lp459
Vanditmoder
p460
aa(lp461
Vpreprocess
p462
aa(lp463
Vingobjectsinthedown
p464
aVsampledimag
p465
aVwepreprocessth
p466
aVestimationresult
p467
aa(lp468
Vmethod
p469
aVchair
p470
aVkitti
p471
aVkitti
p472
aVtest
p473
aVtraintesttraintest
p474
aVtraintesttraintest
p475
aVsupervis
p476
aVflownet
p477
aV\u0153\u0153\u0153
p478
aVflownet
p479
aVft
p480
aV\u0153\u0153
p481
aVspynet
p482
aV\u0153\u0153\u0153
p483
aVspynet
p484
aVft
p485
aV\u0153\u0153
p486
aVflownet
p487
aVflownet
p488
aVft
p489
aVunsupervis
p490
aVdstflow
p491
aVdstflow
p492
aVbest
p493
aVbacktobas
p494
aV\u0153\u0153\u0153\u0153
p495
aV\u0153\u0153
p496
aVft
p497
aVsintel
p498
aVkitti
p499
aVtabl
p500
aVpoint
p501
aVerror
p502
aVep
p503
aVkitti
p504
aVtest
p505
aVfl
p506
aVapixel
p507
aVpointerrori
p508
aVpxor
p509
aVforallmetr
p510
aVsmallerisbett
p511
aVthebest
p512
aVsetofdata
p513
aa(lp514
Vexperimentalresult
p515
aVmpi
p516
aVsinteland
p517
aVkitti
p518
aVpervisedmethod
p519
aVep
p520
aVwhichistheav
p521
aa(lp522
Vendusingadamopti
p523
aVmizer
p524
aVthelearn
p525
aVrateissettob
p526
aVdependingonthein
p527
aVputimageresolut
p528
aVadai
p529
aVduringtrain
p530
aVthehyp
p531
aVparamet
p532
aVaresetto
p533
aVsinteldataset
p534
aVforkitti
p535
aVdataset
p536
aa(lp537
Vweonlyusedhorizont
p538
aVping
p539
aVdur
p540
aVingtest
p541
aVthetot
p542
aVaddinganex
p543
aVtra
p544
aVanopencv
p545
aVcpuimplement
p546
aVmillisecond
p547
aa(lp548
Vtabl
p549
aVviousstat
p550
aVinclud
p551
aVflownet
p552
aVspynet
p553
aVflownet
p554
aVdstflow
p555
aVandbacktobas
p556
aVbest\ufb02her
p557
aa(lp558
Vflyingchair
p559
aa(lp560
Vagesfromflickr
p561
aVweuseittotrainour
p562
aVtruthw
p563
aVwerandomli
p564
aVsplitthedatasetinto
p565
aVtrainingand
p566
aVtest
p567
aVwelabel
p568
aVourepei
p569
aVep
p570
aVdecreasesfrom
p571
aa(lp572
Vmpi
p573
aVsintel
p574
aa(lp575
Vsincempi
p576
aVweuseth
p577
aVft
p578
aVsintel\ufb02
p579
aVcomparedtooth
p580
aVunsupervisedmethod
p581
aVmanc
p582
aVepedecreasesfrom
p583
aVonsintel
p584
aVfigur
p585
aVfromsintelfin
p586
aa(lp587
Vfigur
p588
aVfromkitti
p589
aa(lp590
Vcleantest
p591
aa(lp592
Vfig
p593
aVsintel
p594
aa(lp595
Vkitti
p596
aa(lp597
Vworld
p598
aVdrivingcondit
p599
aVbeleddata
p600
aVthetrainingdataweus
p601
aVhereissimilarto
p602
aVviewexten
p603
aVsion
p604
aVfrombothkitti
p605
aVandkitti
p606
aVduringtrain
p607
aVweexcludetwoneigh
p608
aVtruthw
p609
aVineachmulti
p610
aVview
p611
aVsequenc
p612
aVture
p613
aVandabundantdata
p614
aVkitti\ufb02int
p615
aa(lp616
Vtabl
p617
aa(lp618
Vimprovesepefrom
p619
aVonkitti
p620
aVtest
p621
aVtesttraintrain
p622
aVxx
p623
aVxxx
p624
aVxx
p625
aVxxx
p626
aVxxxx
p627
aVtabl
p628
aVablationstudi
p629
aVmethod
p630
aVcleanfin
p631
aV\u0153\u0153
p632
aVmodof
p633
aV\u0153\u0153
p634
aVtabl
p635
aVthenumbersw
p636
aVmeasur
p637
aVthe
p638
aVdmethodi
p639
aVtrainedwithground
p640
aVtruthocclusionlabel
p641
aa(lp642
Vflownet
p643
aVft
p644
aVbyalargemargin
p645
aVtothest
p646
aVfig
p647
aVourmodelcor
p648
aVthefram
p649
aVseenindstflow
p650
aVsee
p651
aVfigur
p652
aVintheocclusionarea
p653
aa(lp654
Vocclusionestim
p655
aa(lp656
Vestimationonmpi
p657
aVvideground
p658
aVframe
p659
aVamongtheliteratur
p660
aVweonlylimitedreport
p661
aVtabl
p662
aVshowstheocclu
p663
aVmeasureintroducedin
p664
aVonmpi
p665
aVsintel
p666
aVourmethod
p667
aVneural
p668
aVnetwork
p669
aVbasedmethod
p670
aVonkittiweobtain
p671
aVforkitti
p672
aVandkitti
p673
aVrespect
p674
aVwedid
p675
aa(lp676
Vnotethat
p677
aVdusedground
p678
aa(lp679
Vablationstudi
p680
aVtabl
p681
aVshowstheov
p682
aVsintel
p683
aVwhichisthesamea
p684
aa(lp685
Vocclusionhandl
p686
aa(lp687
Vthetoptworowsint
p688
aVsug
p689
aVnetwork
p690
aVfly
p691
aVchairsandfrom
p692
aVonmpi
p693
aVsintelfin
p694
aVwhichi
p695
aVenlargedsearch
p696
aa(lp697
Vshowthat
p698
aVaddingenlargedsearch
p699
aVtheepeimprovesfrom
p700
aVonfli
p701
aVchairsandfrom
p702
aVonmpi
p703
aVsintel
p704
aVfinal
p705
aa(lp706
Vflownet
p707
aa(lp708
Vasmalltoth
p709
aVflownetalsoimprov
p710
aVassuggestedinth
p711
aVthrowint
p712
aVbyonlyaddinga
p713
aVmoreparamet
p714
aVandcomput
p715
aVtheepeimprovesfrom
p716
aVfly
p717
aVchairsandfrom
p718
aVonmpi
p719
aVsintelfin
p720
aa(lp721
Vcontrastenhanc
p722
aa(lp723
Vbycom
p724
aVparingth
p725
aVweth
p726
aVepeimprovesfrom
p727
aVonfli
p728
aVchairsand
p729
aVonmpi
p730
aVsintelfin
p731
aa(lp732
a(lp733
Vwealsothatsom
p734
aVbutth
p735
aa(lp736
Veffectofdata
p737
aa(lp738
Vkittirawvideo
p739
aVsamplescomparedto
p740
aVtotrainourmodel
p741
aVbutwedid
p742
aVnotanyimprov
p743
aVandpwc
p744
aVnet
p745
aVhoweverwedid
p746
aValthough
p747
aa(lp748
Vconclus
p749
aVwepresentanewend
p750
aVweshowthatwith
p751
aVourunsupervisedap
p752
aVdataset
p753
aa(lp754
Vrefer
p755
aVahmadiandi
p756
aVpatra
p757
aVimageprocess
p758
aVicip
p759
aVpage
p760
aa(lp761
Vieee
p762
aa(lp763
Valvarez
p764
aVderich
p765
aVpapadopoulo
p766
aVandj
p767
aVanchez
p768
aa(lp769
Vsionsdetect
p770
aa(lp771
a(lp772
Vayvaci
p773
aVrapti
p774
aVand
p775
aVsoatto
p776
aVadvanc
p777
aVpage
p778
aa(lp779
Vayvaci
p780
aVrapti
p781
aVand
p782
aVsoatto
p783
aVsparseocclusiond
p784
aVtectionwithopticalw
p785
aa(lp786
Vvision
p787
aa(lp788
Vbai
p789
aVluo
p790
aVkundu
p791
aVandr
p792
aVurtasun
p793
aVexploitings
p794
aVpage
p795
aa(lp796
Vspringer
p797
aa(lp798
Vbailer
p799
aVtaetz
p800
aVandd
p801
aVstricker
p802
aVflowdensecorr
p803
aVcalwestim
p804
aVpage
p805
aa(lp806
Vbailer
p807
aVvaranasi
p808
aVandd
p809
aVstricker
p810
aVcnn
p811
aVbasedpatch
p812
aVloss
p813
aVrecognit
p814
aVcvpr
p815
aa(lp816
Vbaker
p817
aVscharstein
p818
aVlewi
p819
aVroth
p820
aVblack
p821
aVszeliski
p822
aVcalw
p823
aa(lp824
a(lp825
Vballest
p826
aVgarrido
p827
aVlazcano
p828
aVandv
p829
aVcasel
p830
aVtv
p831
aa(lp832
Vpattern
p833
aVrecognit
p834
aVpage
p835
aa(lp836
Vbao
p837
aVyang
p838
aVandh
p839
aVjin
p840
aVfastedg
p841
aVpreservingpatch
p842
aVproceed
p843
aVrecognit
p844
aVpage
p845
aa(lp846
Vblackandp
p847
aVanandan
p848
aVplemot
p849
aVsmoothw
p850
aa(lp851
Vbouguet
p852
aa(lp853
Vintel
p854
aVcorpor
p855
aa(lp856
Vbrox
p857
aVbruhn
p858
aVpapenberg
p859
aVandj
p860
aVweickert
p861
aVhighac
p862
aa(lp863
Vcomputervis
p864
aVeccv
p865
aVpage
p866
aa(lp867
Vbroxandj
p868
aVmalik
p869
aVde
p870
aa(lp871
Vieee
p872
aa(lp873
Vbutler
p874
aVwulff
p875
aVstanlei
p876
aVandm
p877
aVblack
p878
aVpage
p879
aa(lp880
Vspringer
p881
aa(lp882
Vchen
p883
aVjin
p884
aVlin
p885
aVcohen
p886
aVandi
p887
aVwu
p888
aVlargedi
p889
aVpro
p890
aVpatternrecognit
p891
aVpage
p892
aa(lp893
Vdosovitskii
p894
aVfischer
p895
aVilg
p896
aVhausser
p897
aVhazirba
p898
aVgolkov
p899
aVvandersmagt
p900
aVcremer
p901
aVandt
p902
aVbrox
p903
aa(lp904
Vflownet
p905
aa(lp906
Vcomputervis
p907
aVpage
p908
aa(lp909
Vfinn
p910
aVgoodfellow
p911
aVand
p912
aVlevin
p913
aVunsupervisedlearn
p914
aVad
p915
aVpage
p916
aa(lp917
Vforsythandj
p918
aVponc
p919
aa(lp920
Vcomputervis
p921
aVamodernap
p922
aVproach
p923
aVuppersaddleriv
p924
aVnj
p925
aVlondon
p926
aVprenticehal
p927
aa(lp928
Vgodard
p929
aVmacaodha
p930
aVandg
p931
aVbrostow
p932
aVunsup
p933
aVrightconsist
p934
aa(lp935
Varxivpreprintarxiv
p936
aa(lp937
Vuneyanda
p938
aVgeiger
p939
aVdeepdiscretew
p940
aVasiancon
p941
aVpage
p942
aVspringer
p943
aa(lp944
Vhafner
p945
aVdemetz
p946
aVandj
p947
aVweickert
p948
aVwhyisthecensu
p949
aVinter
p950
aVodsincomputervis
p951
aVpage
p952
aVspringer
p953
aa(lp954
Vhornandb
p955
aVschunck
p956
aVdeterminingopticalw
p957
aa(lp958
Vintellig
p959
aa(lp960
Vhu
p961
aVsong
p962
aVandi
p963
aVli
p964
aVefpatch
p965
aVproceed
p966
aVrecognit
p967
aVpage
p968
aa(lp969
Vhurand
p970
aVroth
p971
aVeuropeanconferenceon
p972
aVcomputervis
p973
aVpage
p974
aVspringer
p975
aa(lp976
Vhurand
p977
aVroth
p978
aa(lp979
Varxivpreprint
p980
aVarxiv
p981
aa(lp982
Vilg
p983
aVmayer
p984
aVsaikia
p985
aVkeuper
p986
aVdosovitskii
p987
aVbrox
p988
aVflownet
p989
aVwithdeepnetwork
p990
aa(lp991
Varxivpreprintarxiv
p992
aa(lp993
Vinceandj
p994
aVkonrad
p995
aVocclus
p996
aVawareopticalwestima
p997
aVtion
p998
aa(lp999
a(lp1000
Vjaderberg
p1001
aVsimonyan
p1002
aVzisserman
p1003
aVetal
p1004
aVspatial
p1005
aVtransformernetwork
p1006
aVprocessingsystem
p1007
aVpage
p1008
aa(lp1009
Vjanai
p1010
aVgnei
p1011
aVwulff
p1012
aVblack
p1013
aVanda
p1014
aVgeiger
p1015
aVslow
p1016
aVexploitinghigh
p1017
aVcvpr
p1018
aa(lp1019
Vjason
p1020
aVharlei
p1021
aVandk
p1022
aVderpani
p1023
aVbacktobas
p1024
aVcomputervision\u0153eccv
p1025
aVworkshop
p1026
aVpage
p1027
aVspringer
p1028
aa(lp1029
Vkingmaandj
p1030
aVba
p1031
aVadam
p1032
aVmizat
p1033
aa(lp1034
Varxivpreprintarxiv
p1035
aa(lp1036
Vkrizhevski
p1037
aVsutskev
p1038
aVandg
p1039
aVhinton
p1040
aVimagenet
p1041
aVpage
p1042
aa(lp1043
Vleordeanu
p1044
aVandc
p1045
aVsminchisescu
p1046
aVlocal
p1047
aVafspars
p1048
aVtimat
p1049
aVenceoncomputervis
p1050
aVpage
p1051
aa(lp1052
Vluca
p1053
aVkanad
p1054
aVetal
p1055
aa(lp1056
Vmayer
p1057
aVilg
p1058
aVhausser
p1059
aVfischer
p1060
aVcremer
p1061
aVdosovitskii
p1062
aVandt
p1063
aVbrox
p1064
aVopticalw
p1065
aVandscen
p1066
aVwestim
p1067
aVpage
p1068
aa(lp1069
Vmenz
p1070
aVheipk
p1071
aVanda
p1072
aVgeiger
p1073
aVdiscreteoptim
p1074
aVforopticalw
p1075
aVtion
p1076
aVpage
p1077
aVspringer
p1078
aa(lp1079
Vpathak
p1080
aVgirshick
p1081
aVdoll
p1082
aVar
p1083
aVdarrel
p1084
aVandb
p1085
aVhari
p1086
aVharan
p1087
aa(lp1088
Varxiv
p1089
aVpreprintarxiv
p1090
aa(lp1091
Vpatraucean
p1092
aVhanda
p1093
aVandr
p1094
aVcipolla
p1095
aVspatio
p1096
aVtempor
p1097
aa(lp1098
Varxiv
p1099
aVpreprintarxiv
p1100
aa(lp1101
Vranjanandm
p1102
aVblack
p1103
aa(lp1104
Varxivpreprintarxiv
p1105
aa(lp1106
Vren
p1107
aVyan
p1108
aVni
p1109
aVliu
p1110
aVyang
p1111
aVandh
p1112
aVzha
p1113
aVunsu
p1114
aVaaai
p1115
aVpage
p1116
aa(lp1117
Vrevaud
p1118
aVweinzaepfel
p1119
aVharchaoui
p1120
aVandc
p1121
aVschmid
p1122
aa(lp1123
Vedg
p1124
aVforopticalw
p1125
aVpage
p1126
aa(lp1127
Vsevilla
p1128
aVlara
p1129
aVsun
p1130
aVjampani
p1131
aVandm
p1132
aVblack
p1133
aVop
p1134
aa(lp1135
Vpage
p1136
aa(lp1137
Vsevilla
p1138
aVlara
p1139
aVsun
p1140
aVlearn
p1141
aVmiller
p1142
aVandm
p1143
aa(lp1144
Vblack
p1145
aVpage
p1146
aa(lp1147
Vspringer
p1148
aa(lp1149
Vsimonyananda
p1150
aVzisserman
p1151
aVtwo
p1152
aVstreamconvolut
p1153
aVadvanc
p1154
aVpage
p1155
aa(lp1156
Vstein
p1157
aVsustransform
p1158
aVdagm
p1159
aVsymposium
p1160
aVvolum
p1161
aVpage
p1162
aVspringer
p1163
aa(lp1164
Vstrecha
p1165
aVfransen
p1166
aVandl
p1167
aVvangool
p1168
aVaprobabilist
p1169
aVdetect
p1170
aVeccvworkshopsmvp
p1171
aVpage
p1172
aVspringer
p1173
aa(lp1174
Vsun
p1175
aVliu
p1176
aVandh
p1177
aVster
p1178
aVproceedingsofth
p1179
aVtion
p1180
aVpage
p1181
aa(lp1182
Vsun
p1183
aVroth
p1184
aVandm
p1185
aVblack
p1186
aVsecretsofopticalw
p1187
aVcomputervisionandpat
p1188
aVternrecognit
p1189
aVcvpr
p1190
aVieeeconferenceon
p1191
aVpage
p1192
aVieee
p1193
aa(lp1194
Vsun
p1195
aVsudderth
p1196
aVandm
p1197
aVblack
p1198
aVlayeredimag
p1199
aVtemporalconsist
p1200
aVdepthord
p1201
aVingsystem
p1202
aVpage
p1203
aa(lp1204
Vsun
p1205
aVyang
p1206
aVliu
p1207
aVandj
p1208
aVkautz
p1209
aVpwc
p1210
aVnet
p1211
aVcnnsfor
p1212
aVopticalwusingpyramid
p1213
aVwarp
p1214
aVandcostvolum
p1215
aa(lp1216
Varxiv
p1217
aVpreprintarxiv
p1218
aa(lp1219
Vsun
p1220
aVli
p1221
aVkang
p1222
aVandh
p1223
aVshum
p1224
aVsymmetricstereo
p1225
aVcomputervisionand
p1226
aVpatternrecognit
p1227
aVcvpr
p1228
aVieeecomputerso
p1229
aVcietyconferenceon
p1230
aVvolum
p1231
aVpage
p1232
aVieee
p1233
aa(lp1234
Vtao
p1235
aVbai
p1236
aVkohli
p1237
aVand
p1238
aVpari
p1239
aVnon
p1240
aViter
p1241
aVcomput
p1242
aVgraphicsforum
p1243
aVvolum
p1244
aVpage
p1245
aVwileyonlin
p1246
aVlibrari
p1247
aa(lp1248
Vunger
p1249
aVwerlberg
p1250
aVpock
p1251
aVandh
p1252
aVbischof
p1253
aVjoint
p1254
aVcomputervis
p1255
aVcvpr
p1256
aVieeeconferenceon
p1257
aVpage
p1258
aVieee
p1259
aa(lp1260
Vvijayanarasimhan
p1261
aVricco
p1262
aVschmid
p1263
aVsukthankar
p1264
aVandk
p1265
aVfragkiadaki
p1266
aVsfm
p1267
aVnet
p1268
aVtionfromvideo
p1269
aa(lp1270
Varxivpreprintarxiv
p1271
aa(lp1272
Vvogel
p1273
aVroth
p1274
aVandk
p1275
aVschindler
p1276
aVanevaluationofdata
p1277
aVcostsforopticalw
p1278
aVrecognit
p1279
aVpage
p1280
aVspringer
p1281
aa(lp1282
Vweinzaepfel
p1283
aVrevaud
p1284
aVharchaoui
p1285
aVandc
p1286
aVschmid
p1287
aa(lp1288
Ving
p1289
aVcomputervis
p1290
aVpage
p1291
aa(lp1292
Vxu
p1293
aVranftl
p1294
aVandv
p1295
aVkoltun
p1296
aVaccurateopt
p1297
aa(lp1298
Varxivpreprint
p1299
aVarxiv
p1300
aa(lp1301
Vxu
p1302
aVjia
p1303
aVandi
p1304
aVmatsushita
p1305
aVticalwestim
p1306
aa(lp1307
a(lp1308
Vyamaguchi
p1309
aVmcallest
p1310
aVandr
p1311
aVurtasun
p1312
aVefjoint
p1313
aVsegment
p1314
aVocclusionlabel
p1315
aVstereoandwestim
p1316
aa(lp1317
Vpage
p1318
aVspringer
p1319
aa(lp1320
Vzabihandj
p1321
aVwnon
p1322
aVeuropeanconf
p1323
aVenceoncomputervis
p1324
aVpage
p1325
aVspringer
p1326
aa(lp1327
Vzhu
p1328
aVwang
p1329
aVdai
p1330
aVyuan
p1331
aVandi
p1332
aVwei
p1333
aVflow
p1334
aVguid
p1335
aa(lp1336
Varxivpreprint
p1337
aVarxiv
p1338
aa(lp1339
a.